target datalayout = "e-m:e-p270:32:32-p271:32:32-p272:64:64-i64:64-i128:128-f80:128-n8:16:32:64-S128"
target triple = "x86_64-pc-linux-gnu"

%"class.std::__shared_count" = type { ptr }
%union.pthread_mutex_t = type { %struct.__pthread_mutex_s }
%struct.__pthread_mutex_s = type { i32, i32, i32, i32, i32, i16, i16, %struct.__pthread_internal_list }
%struct.__pthread_internal_list = type { ptr, ptr }
%"class.std::__cxx11::basic_string" = type { %"struct.std::__cxx11::basic_string<char>::_Alloc_hider", i64, %union.anon }
%"struct.std::__cxx11::basic_string<char>::_Alloc_hider" = type { ptr }
%union.anon = type { i64, [8 x i8] }
%"class.OpenColorIO_v2_5dev::Config" = type { ptr }
%"class.OpenColorIO_v2_5dev::Config::Impl" = type { i32, i32, %"class.std::map", %"class.std::shared_ptr.20", %"class.std::__cxx11::basic_string", i8, %"class.std::__cxx11::basic_string", %"class.std::shared_ptr.23", %"class.std::vector.26", %"class.std::vector.26", %"class.std::__cxx11::basic_string", %"class.std::__cxx11::basic_string", %"class.std::__cxx11::basic_string", %"class.std::map", %"class.std::vector.31", %"class.std::vector.36", %"class.std::vector.26", %"class.std::vector.26", %"class.std::vector.26", %"class.std::vector.26", %"class.std::vector.41", %"class.std::shared_ptr.46", %"struct.OpenColorIO_v2_5dev::Display", %"class.std::vector.49", %"class.std::__cxx11::basic_string", %"class.std::__cxx11::basic_string", %"class.std::__cxx11::basic_string", %"class.std::vector.26", %"class.std::vector.54", %"class.std::vector.26", %"class.std::vector.26", %"class.std::vector.59", i8, i32, %"class.std::__cxx11::basic_string", %"class.std::mutex", %"class.std::map", %"class.std::__cxx11::basic_string", %"class.std::shared_ptr.64", i32, %"class.OpenColorIO_v2_5dev::ProcessorCache" }
%"class.std::shared_ptr.20" = type { %"class.std::__shared_ptr.21" }
%"class.std::__shared_ptr.21" = type { ptr, %"class.std::__shared_count" }
%"class.std::shared_ptr.23" = type { %"class.std::__shared_ptr.24" }
%"class.std::__shared_ptr.24" = type { ptr, %"class.std::__shared_count" }
%"class.std::vector.31" = type { %"struct.std::_Vector_base.32" }
%"struct.std::_Vector_base.32" = type { %"struct.std::_Vector_base<std::shared_ptr<OpenColorIO_v2_5dev::Look>, std::allocator<std::shared_ptr<OpenColorIO_v2_5dev::Look>>>::_Vector_impl" }
%"struct.std::_Vector_base<std::shared_ptr<OpenColorIO_v2_5dev::Look>, std::allocator<std::shared_ptr<OpenColorIO_v2_5dev::Look>>>::_Vector_impl" = type { %"struct.std::_Vector_base<std::shared_ptr<OpenColorIO_v2_5dev::Look>, std::allocator<std::shared_ptr<OpenColorIO_v2_5dev::Look>>>::_Vector_impl_data" }
%"struct.std::_Vector_base<std::shared_ptr<OpenColorIO_v2_5dev::Look>, std::allocator<std::shared_ptr<OpenColorIO_v2_5dev::Look>>>::_Vector_impl_data" = type { ptr, ptr, ptr }
%"class.std::vector.36" = type { %"struct.std::_Vector_base.37" }
%"struct.std::_Vector_base.37" = type { %"struct.std::_Vector_base<std::pair<std::__cxx11::basic_string<char>, OpenColorIO_v2_5dev::Display>, std::allocator<std::pair<std::__cxx11::basic_string<char>, OpenColorIO_v2_5dev::Display>>>::_Vector_impl" }
%"struct.std::_Vector_base<std::pair<std::__cxx11::basic_string<char>, OpenColorIO_v2_5dev::Display>, std::allocator<std::pair<std::__cxx11::basic_string<char>, OpenColorIO_v2_5dev::Display>>>::_Vector_impl" = type { %"struct.std::_Vector_base<std::pair<std::__cxx11::basic_string<char>, OpenColorIO_v2_5dev::Display>, std::allocator<std::pair<std::__cxx11::basic_string<char>, OpenColorIO_v2_5dev::Display>>>::_Vector_impl_data" }
%"struct.std::_Vector_base<std::pair<std::__cxx11::basic_string<char>, OpenColorIO_v2_5dev::Display>, std::allocator<std::pair<std::__cxx11::basic_string<char>, OpenColorIO_v2_5dev::Display>>>::_Vector_impl_data" = type { ptr, ptr, ptr }
%"class.std::vector.41" = type { %"struct.std::_Vector_base.42" }
%"struct.std::_Vector_base.42" = type { %"struct.std::_Vector_base<OpenColorIO_v2_5dev::View, std::allocator<OpenColorIO_v2_5dev::View>>::_Vector_impl" }
%"struct.std::_Vector_base<OpenColorIO_v2_5dev::View, std::allocator<OpenColorIO_v2_5dev::View>>::_Vector_impl" = type { %"struct.std::_Vector_base<OpenColorIO_v2_5dev::View, std::allocator<OpenColorIO_v2_5dev::View>>::_Vector_impl_data" }
%"struct.std::_Vector_base<OpenColorIO_v2_5dev::View, std::allocator<OpenColorIO_v2_5dev::View>>::_Vector_impl_data" = type { ptr, ptr, ptr }
%"class.std::shared_ptr.46" = type { %"class.std::__shared_ptr.47" }
%"class.std::__shared_ptr.47" = type { ptr, %"class.std::__shared_count" }
%"struct.OpenColorIO_v2_5dev::Display" = type { i8, %"class.std::vector.41", %"class.std::vector.26" }
%"class.std::vector.49" = type { %"struct.std::_Vector_base.50" }
%"struct.std::_Vector_base.50" = type { %"struct.std::_Vector_base<std::shared_ptr<OpenColorIO_v2_5dev::ViewTransform>, std::allocator<std::shared_ptr<OpenColorIO_v2_5dev::ViewTransform>>>::_Vector_impl" }
%"struct.std::_Vector_base<std::shared_ptr<OpenColorIO_v2_5dev::ViewTransform>, std::allocator<std::shared_ptr<OpenColorIO_v2_5dev::ViewTransform>>>::_Vector_impl" = type { %"struct.std::_Vector_base<std::shared_ptr<OpenColorIO_v2_5dev::ViewTransform>, std::allocator<std::shared_ptr<OpenColorIO_v2_5dev::ViewTransform>>>::_Vector_impl_data" }
%"struct.std::_Vector_base<std::shared_ptr<OpenColorIO_v2_5dev::ViewTransform>, std::allocator<std::shared_ptr<OpenColorIO_v2_5dev::ViewTransform>>>::_Vector_impl_data" = type { ptr, ptr, ptr }
%"class.std::vector.54" = type { %"struct.std::_Vector_base.55" }
%"struct.std::_Vector_base.55" = type { %"struct.std::_Vector_base<std::shared_ptr<const OpenColorIO_v2_5dev::NamedTransform>, std::allocator<std::shared_ptr<const OpenColorIO_v2_5dev::NamedTransform>>>::_Vector_impl" }
%"struct.std::_Vector_base<std::shared_ptr<const OpenColorIO_v2_5dev::NamedTransform>, std::allocator<std::shared_ptr<const OpenColorIO_v2_5dev::NamedTransform>>>::_Vector_impl" = type { %"struct.std::_Vector_base<std::shared_ptr<const OpenColorIO_v2_5dev::NamedTransform>, std::allocator<std::shared_ptr<const OpenColorIO_v2_5dev::NamedTransform>>>::_Vector_impl_data" }
%"struct.std::_Vector_base<std::shared_ptr<const OpenColorIO_v2_5dev::NamedTransform>, std::allocator<std::shared_ptr<const OpenColorIO_v2_5dev::NamedTransform>>>::_Vector_impl_data" = type { ptr, ptr, ptr }
%"class.std::vector.26" = type { %"struct.std::_Vector_base.27" }
%"struct.std::_Vector_base.27" = type { %"struct.std::_Vector_base<std::__cxx11::basic_string<char>, std::allocator<std::__cxx11::basic_string<char>>>::_Vector_impl" }
%"struct.std::_Vector_base<std::__cxx11::basic_string<char>, std::allocator<std::__cxx11::basic_string<char>>>::_Vector_impl" = type { %"struct.std::_Vector_base<std::__cxx11::basic_string<char>, std::allocator<std::__cxx11::basic_string<char>>>::_Vector_impl_data" }
%"struct.std::_Vector_base<std::__cxx11::basic_string<char>, std::allocator<std::__cxx11::basic_string<char>>>::_Vector_impl_data" = type { ptr, ptr, ptr }
%"class.std::vector.59" = type { %"struct.std::_Vector_base.60" }
%"struct.std::_Vector_base.60" = type { %"struct.std::_Vector_base<double, std::allocator<double>>::_Vector_impl" }
%"struct.std::_Vector_base<double, std::allocator<double>>::_Vector_impl" = type { %"struct.std::_Vector_base<double, std::allocator<double>>::_Vector_impl_data" }
%"struct.std::_Vector_base<double, std::allocator<double>>::_Vector_impl_data" = type { ptr, ptr, ptr }
%"class.std::mutex" = type { %"class.std::__mutex_base" }
%"class.std::__mutex_base" = type { %union.pthread_mutex_t }
%"class.std::map" = type { %"class.std::_Rb_tree" }
%"class.std::_Rb_tree" = type { %"struct.std::_Rb_tree<std::__cxx11::basic_string<char>, std::pair<const std::__cxx11::basic_string<char>, std::__cxx11::basic_string<char>>, std::_Select1st<std::pair<const std::__cxx11::basic_string<char>, std::__cxx11::basic_string<char>>>, std::less<std::__cxx11::basic_string<char>>>::_Rb_tree_impl" }
%"struct.std::_Rb_tree<std::__cxx11::basic_string<char>, std::pair<const std::__cxx11::basic_string<char>, std::__cxx11::basic_string<char>>, std::_Select1st<std::pair<const std::__cxx11::basic_string<char>, std::__cxx11::basic_string<char>>>, std::less<std::__cxx11::basic_string<char>>>::_Rb_tree_impl" = type { [8 x i8], %"struct.std::_Rb_tree_header" }
%"struct.std::_Rb_tree_header" = type { %"struct.std::_Rb_tree_node_base", i64 }
%"struct.std::_Rb_tree_node_base" = type { i32, ptr, ptr, ptr }
%"class.std::shared_ptr.64" = type { %"class.std::__shared_ptr.65" }
%"class.std::__shared_ptr.65" = type { ptr, %"class.std::__shared_count" }
%"class.OpenColorIO_v2_5dev::ProcessorCache" = type { %"class.OpenColorIO_v2_5dev::GenericCache" }
%"class.OpenColorIO_v2_5dev::GenericCache" = type { ptr, i8, i8, %"class.std::mutex", %"class.std::map.67" }
%"class.std::map.67" = type { %"class.std::_Rb_tree.68" }
%"class.std::_Rb_tree.68" = type { %"struct.std::_Rb_tree<unsigned long, std::pair<const unsigned long, std::shared_ptr<OpenColorIO_v2_5dev::Processor>>, std::_Select1st<std::pair<const unsigned long, std::shared_ptr<OpenColorIO_v2_5dev::Processor>>>, std::less<unsigned long>>::_Rb_tree_impl" }
%"struct.std::_Rb_tree<unsigned long, std::pair<const unsigned long, std::shared_ptr<OpenColorIO_v2_5dev::Processor>>, std::_Select1st<std::pair<const unsigned long, std::shared_ptr<OpenColorIO_v2_5dev::Processor>>>, std::less<unsigned long>>::_Rb_tree_impl" = type { [8 x i8], %"struct.std::_Rb_tree_header" }
%"class.__gnu_cxx::__normal_iterator.83" = type { ptr }

@.str.25 = private unnamed_addr constant [1 x i8] zeroinitializer, align 1

; Function Attrs: mustprogress nounwind uwtable
define linkonce_odr hidden noundef nonnull align 8 dereferenceable(8) ptr @_ZNK9__gnu_cxx17__normal_iteratorIPKNSt7__cxx1112basic_stringIcSt11char_traitsIcESaIcEEESt6vectorIS6_SaIS6_EEE4baseEv(ptr noundef nonnull align 8 dereferenceable(8) %0) #4 comdat align 2 {
  %2 = alloca ptr, align 8
  store ptr %0, ptr %2, align 8, !tbaa !231
  %3 = load ptr, ptr %2, align 8
  %4 = getelementptr inbounds nuw %"class.__gnu_cxx::__normal_iterator.83", ptr %3, i32 0, i32 0
  ret ptr %4
}

; Function Attrs: mustprogress nounwind uwtable
define linkonce_odr hidden void @_ZN9__gnu_cxx17__normal_iteratorIPKNSt7__cxx1112basic_stringIcSt11char_traitsIcESaIcEEESt6vectorIS6_SaIS6_EEEC2ERKS8_(ptr noundef nonnull align 8 dereferenceable(8) %0, ptr noundef nonnull align 8 dereferenceable(8) %1) unnamed_addr #4 comdat align 2 {
  %3 = alloca ptr, align 8
  %4 = alloca ptr, align 8
  store ptr %0, ptr %3, align 8, !tbaa !231
  store ptr %1, ptr %4, align 8, !tbaa !803
  %5 = load ptr, ptr %3, align 8
  %6 = getelementptr inbounds nuw %"class.__gnu_cxx::__normal_iterator.83", ptr %5, i32 0, i32 0
  %7 = load ptr, ptr %4, align 8, !tbaa !803
  %8 = load ptr, ptr %7, align 8, !tbaa !38
  store ptr %8, ptr %6, align 8, !tbaa !233
  ret void
}

; Function Attrs: inlinehint mustprogress nounwind uwtable
define linkonce_odr noundef zeroext i1 @_ZN9__gnu_cxxeqIPKNSt7__cxx1112basic_stringIcSt11char_traitsIcESaIcEEESt6vectorIS6_SaIS6_EEEEbRKNS_17__normal_iteratorIT_T0_EESH_(ptr noundef nonnull align 8 dereferenceable(8) %0, ptr noundef nonnull align 8 dereferenceable(8) %1) #10 comdat {
  %3 = alloca ptr, align 8
  %4 = alloca ptr, align 8
  store ptr %0, ptr %3, align 8, !tbaa !231
  store ptr %1, ptr %4, align 8, !tbaa !231
  %5 = load ptr, ptr %3, align 8, !tbaa !231
  %6 = call noundef nonnull align 8 dereferenceable(8) ptr @_ZNK9__gnu_cxx17__normal_iteratorIPKNSt7__cxx1112basic_stringIcSt11char_traitsIcESaIcEEESt6vectorIS6_SaIS6_EEE4baseEv(ptr noundef nonnull align 8 dereferenceable(8) %5) #3
  %7 = load ptr, ptr %6, align 8, !tbaa !38
  %8 = load ptr, ptr %4, align 8, !tbaa !231
  %9 = call noundef nonnull align 8 dereferenceable(8) ptr @_ZNK9__gnu_cxx17__normal_iteratorIPKNSt7__cxx1112basic_stringIcSt11char_traitsIcESaIcEEESt6vectorIS6_SaIS6_EEE4baseEv(ptr noundef nonnull align 8 dereferenceable(8) %8) #3
  %10 = load ptr, ptr %9, align 8, !tbaa !38
  %11 = icmp eq ptr %7, %10
  ret i1 %11
}

; Function Attrs: mustprogress nounwind uwtable
define linkonce_odr hidden ptr @_ZNKSt6vectorINSt7__cxx1112basic_stringIcSt11char_traitsIcESaIcEEESaIS5_EE3endEv(ptr noundef nonnull align 8 dereferenceable(24) %0) #4 comdat align 2 {
  %2 = alloca %"class.__gnu_cxx::__normal_iterator.83", align 8
  %3 = alloca ptr, align 8
  store ptr %0, ptr %3, align 8, !tbaa !195
  %4 = load ptr, ptr %3, align 8
  %5 = getelementptr inbounds nuw %"struct.std::_Vector_base.27", ptr %4, i32 0, i32 0
  %6 = getelementptr inbounds nuw %"struct.std::_Vector_base<std::__cxx11::basic_string<char>, std::allocator<std::__cxx11::basic_string<char>>>::_Vector_impl_data", ptr %5, i32 0, i32 1
  call void @_ZN9__gnu_cxx17__normal_iteratorIPKNSt7__cxx1112basic_stringIcSt11char_traitsIcESaIcEEESt6vectorIS6_SaIS6_EEEC2ERKS8_(ptr noundef nonnull align 8 dereferenceable(8) %2, ptr noundef nonnull align 8 dereferenceable(8) %6) #3
  %7 = getelementptr inbounds nuw %"class.__gnu_cxx::__normal_iterator.83", ptr %2, i32 0, i32 0
  %8 = load ptr, ptr %7, align 8
  ret ptr %8
}

; Function Attrs: mustprogress nounwind uwtable
define linkonce_odr hidden ptr @_ZNKSt6vectorINSt7__cxx1112basic_stringIcSt11char_traitsIcESaIcEEESaIS5_EE5beginEv(ptr noundef nonnull align 8 dereferenceable(24) %0) #4 comdat align 2 {
  %2 = alloca %"class.__gnu_cxx::__normal_iterator.83", align 8
  %3 = alloca ptr, align 8
  store ptr %0, ptr %3, align 8, !tbaa !195
  %4 = load ptr, ptr %3, align 8
  %5 = getelementptr inbounds nuw %"struct.std::_Vector_base.27", ptr %4, i32 0, i32 0
  %6 = getelementptr inbounds nuw %"struct.std::_Vector_base<std::__cxx11::basic_string<char>, std::allocator<std::__cxx11::basic_string<char>>>::_Vector_impl_data", ptr %5, i32 0, i32 0
  call void @_ZN9__gnu_cxx17__normal_iteratorIPKNSt7__cxx1112basic_stringIcSt11char_traitsIcESaIcEEESt6vectorIS6_SaIS6_EEEC2ERKS8_(ptr noundef nonnull align 8 dereferenceable(8) %2, ptr noundef nonnull align 8 dereferenceable(8) %6) #3
  %7 = getelementptr inbounds nuw %"class.__gnu_cxx::__normal_iterator.83", ptr %2, i32 0, i32 0
  %8 = load ptr, ptr %7, align 8
  ret ptr %8
}

; Function Attrs: mustprogress nounwind uwtable
define available_externally noundef ptr @_ZNKSt7__cxx1112basic_stringIcSt11char_traitsIcESaIcEE7_M_dataEv(ptr noundef nonnull align 8 dereferenceable(32) %0) #4 align 2 {
  %2 = alloca ptr, align 8
  store ptr %0, ptr %2, align 8, !tbaa !38
  %3 = load ptr, ptr %2, align 8
  %4 = getelementptr inbounds nuw %"class.std::__cxx11::basic_string", ptr %3, i32 0, i32 0
  %5 = getelementptr inbounds nuw %"struct.std::__cxx11::basic_string<char>::_Alloc_hider", ptr %4, i32 0, i32 0
  %6 = load ptr, ptr %5, align 8, !tbaa !952
  ret ptr %6
}

; Function Attrs: mustprogress nounwind uwtable
define linkonce_odr hidden noundef zeroext i1 @_ZNKSt6vectorINSt7__cxx1112basic_stringIcSt11char_traitsIcESaIcEEESaIS5_EE5emptyEv(ptr noundef nonnull align 8 dereferenceable(24) %0) #4 comdat align 2 {
  %2 = alloca ptr, align 8
  %3 = alloca %"class.__gnu_cxx::__normal_iterator.83", align 8
  %4 = alloca %"class.__gnu_cxx::__normal_iterator.83", align 8
  store ptr %0, ptr %2, align 8, !tbaa !195
  %5 = load ptr, ptr %2, align 8
  call void @llvm.lifetime.start.p0(i64 8, ptr %3) #3
  %6 = call ptr @_ZNKSt6vectorINSt7__cxx1112basic_stringIcSt11char_traitsIcESaIcEEESaIS5_EE5beginEv(ptr noundef nonnull align 8 dereferenceable(24) %5) #3
  %7 = getelementptr inbounds nuw %"class.__gnu_cxx::__normal_iterator.83", ptr %3, i32 0, i32 0
  store ptr %6, ptr %7, align 8
  call void @llvm.lifetime.start.p0(i64 8, ptr %4) #3
  %8 = call ptr @_ZNKSt6vectorINSt7__cxx1112basic_stringIcSt11char_traitsIcESaIcEEESaIS5_EE3endEv(ptr noundef nonnull align 8 dereferenceable(24) %5) #3
  %9 = getelementptr inbounds nuw %"class.__gnu_cxx::__normal_iterator.83", ptr %4, i32 0, i32 0
  store ptr %8, ptr %9, align 8
  %10 = call noundef zeroext i1 @_ZN9__gnu_cxxeqIPKNSt7__cxx1112basic_stringIcSt11char_traitsIcESaIcEEESt6vectorIS6_SaIS6_EEEEbRKNS_17__normal_iteratorIT_T0_EESH_(ptr noundef nonnull align 8 dereferenceable(8) %3, ptr noundef nonnull align 8 dereferenceable(8) %4) #3
  call void @llvm.lifetime.end.p0(i64 8, ptr %4) #3
  call void @llvm.lifetime.end.p0(i64 8, ptr %3) #3
  ret i1 %10
}

; Function Attrs: mustprogress nounwind uwtable
define available_externally noundef ptr @_ZNKSt7__cxx1112basic_stringIcSt11char_traitsIcESaIcEE5c_strEv(ptr noundef nonnull align 8 dereferenceable(32) %0) #4 align 2 {
  %2 = alloca ptr, align 8
  store ptr %0, ptr %2, align 8, !tbaa !38
  %3 = load ptr, ptr %2, align 8
  %4 = call noundef ptr @_ZNKSt7__cxx1112basic_stringIcSt11char_traitsIcESaIcEE7_M_dataEv(ptr noundef nonnull align 8 dereferenceable(32) %3)
  ret ptr %4
}

; Function Attrs: mustprogress nounwind uwtable
define linkonce_odr hidden noundef nonnull align 8 dereferenceable(32) ptr @_ZNSt6vectorINSt7__cxx1112basic_stringIcSt11char_traitsIcESaIcEEESaIS5_EEixEm(ptr noundef nonnull align 8 dereferenceable(24) %0, i64 noundef %1) #4 comdat align 2 {
  %3 = alloca ptr, align 8
  %4 = alloca i64, align 8
  store ptr %0, ptr %3, align 8, !tbaa !195
  store i64 %1, ptr %4, align 8, !tbaa !80
  %5 = load ptr, ptr %3, align 8
  %6 = getelementptr inbounds nuw %"struct.std::_Vector_base.27", ptr %5, i32 0, i32 0
  %7 = getelementptr inbounds nuw %"struct.std::_Vector_base<std::__cxx11::basic_string<char>, std::allocator<std::__cxx11::basic_string<char>>>::_Vector_impl_data", ptr %6, i32 0, i32 0
  %8 = load ptr, ptr %7, align 8, !tbaa !278
  %9 = load i64, ptr %4, align 8, !tbaa !80
  %10 = getelementptr inbounds nuw %"class.std::__cxx11::basic_string", ptr %8, i64 %9
  ret ptr %10
}

; Function Attrs: mustprogress nounwind uwtable
define linkonce_odr hidden noundef i64 @_ZNKSt6vectorINSt7__cxx1112basic_stringIcSt11char_traitsIcESaIcEEESaIS5_EE4sizeEv(ptr noundef nonnull align 8 dereferenceable(24) %0) #4 comdat align 2 {
  %2 = alloca ptr, align 8
  store ptr %0, ptr %2, align 8, !tbaa !195
  %3 = load ptr, ptr %2, align 8
  %4 = getelementptr inbounds nuw %"struct.std::_Vector_base.27", ptr %3, i32 0, i32 0
  %5 = getelementptr inbounds nuw %"struct.std::_Vector_base<std::__cxx11::basic_string<char>, std::allocator<std::__cxx11::basic_string<char>>>::_Vector_impl_data", ptr %4, i32 0, i32 1
  %6 = load ptr, ptr %5, align 8, !tbaa !276
  %7 = getelementptr inbounds nuw %"struct.std::_Vector_base.27", ptr %3, i32 0, i32 0
  %8 = getelementptr inbounds nuw %"struct.std::_Vector_base<std::__cxx11::basic_string<char>, std::allocator<std::__cxx11::basic_string<char>>>::_Vector_impl_data", ptr %7, i32 0, i32 0
  %9 = load ptr, ptr %8, align 8, !tbaa !278
  %10 = ptrtoint ptr %6 to i64
  %11 = ptrtoint ptr %9 to i64
  %12 = sub i64 %10, %11
  %13 = sdiv exact i64 %12, 32
  ret i64 %13
}

; Function Attrs: mustprogress uwtable
define linkonce_odr hidden void @_ZNK19OpenColorIO_v2_5dev6Config4Impl18updateDisplayCacheEv(ptr noundef nonnull align 8 dereferenceable(1120) %0) #5 comdat align 2 {
  %2 = alloca ptr, align 8
  store ptr %0, ptr %2, align 8, !tbaa !92
  %3 = load ptr, ptr %2, align 8
  %4 = getelementptr inbounds nuw %"class.OpenColorIO_v2_5dev::Config::Impl", ptr %3, i32 0, i32 27
  %5 = call noundef zeroext i1 @_ZNKSt6vectorINSt7__cxx1112basic_stringIcSt11char_traitsIcESaIcEEESaIS5_EE5emptyEv(ptr noundef nonnull align 8 dereferenceable(24) %4) #3
  br i1 %5, label %6, label %11

6:                                                ; preds = %1
  %7 = getelementptr inbounds nuw %"class.OpenColorIO_v2_5dev::Config::Impl", ptr %3, i32 0, i32 27
  %8 = getelementptr inbounds nuw %"class.OpenColorIO_v2_5dev::Config::Impl", ptr %3, i32 0, i32 15
  %9 = getelementptr inbounds nuw %"class.OpenColorIO_v2_5dev::Config::Impl", ptr %3, i32 0, i32 16
  %10 = getelementptr inbounds nuw %"class.OpenColorIO_v2_5dev::Config::Impl", ptr %3, i32 0, i32 17
  call void @_ZN19OpenColorIO_v2_5dev15ComputeDisplaysERSt6vectorINSt7__cxx1112basic_stringIcSt11char_traitsIcESaIcEEESaIS6_EERKS0_ISt4pairIS6_NS_7DisplayEESaISC_EERKS8_SI_(ptr noundef nonnull align 8 dereferenceable(24) %7, ptr noundef nonnull align 8 dereferenceable(24) %8, ptr noundef nonnull align 8 dereferenceable(24) %9, ptr noundef nonnull align 8 dereferenceable(24) %10)
  br label %11

11:                                               ; preds = %6, %1
  ret void
}

; Function Attrs: mustprogress nounwind uwtable
define linkonce_odr hidden noundef ptr @_ZNK19OpenColorIO_v2_5dev6Config7getImplEv(ptr noundef nonnull align 8 dereferenceable(8) %0) #4 comdat align 2 {
  %2 = alloca ptr, align 8
  store ptr %0, ptr %2, align 8, !tbaa !25
  %3 = load ptr, ptr %2, align 8
  %4 = getelementptr inbounds nuw %"class.OpenColorIO_v2_5dev::Config", ptr %3, i32 0, i32 0
  %5 = load ptr, ptr %4, align 8, !tbaa !26
  ret ptr %5
}

; Function Attrs: mustprogress uwtable
define noundef ptr @_ZNK19OpenColorIO_v2_5dev6Config10getDisplayEi(ptr noundef nonnull align 8 dereferenceable(8) %0, i32 noundef %1) #5 align 2 {
  %3 = alloca ptr, align 8
  %4 = alloca ptr, align 8
  %5 = alloca i32, align 4
  store ptr %0, ptr %4, align 8, !tbaa !25
  store i32 %1, ptr %5, align 4, !tbaa !165
  %6 = load ptr, ptr %4, align 8
  %7 = call noundef ptr @_ZNK19OpenColorIO_v2_5dev6Config7getImplEv(ptr noundef nonnull align 8 dereferenceable(8) %6)
  call void @_ZNK19OpenColorIO_v2_5dev6Config4Impl18updateDisplayCacheEv(ptr noundef nonnull align 8 dereferenceable(1120) %7)
  %8 = load i32, ptr %5, align 4, !tbaa !165
  %9 = icmp sge i32 %8, 0
  br i1 %9, label %10, label %24

10:                                               ; preds = %2
  %11 = load i32, ptr %5, align 4, !tbaa !165
  %12 = call noundef ptr @_ZNK19OpenColorIO_v2_5dev6Config7getImplEv(ptr noundef nonnull align 8 dereferenceable(8) %6)
  %13 = getelementptr inbounds nuw %"class.OpenColorIO_v2_5dev::Config::Impl", ptr %12, i32 0, i32 27
  %14 = call noundef i64 @_ZNKSt6vectorINSt7__cxx1112basic_stringIcSt11char_traitsIcESaIcEEESaIS5_EE4sizeEv(ptr noundef nonnull align 8 dereferenceable(24) %13) #3
  %15 = trunc i64 %14 to i32
  %16 = icmp slt i32 %11, %15
  br i1 %16, label %17, label %24

17:                                               ; preds = %10
  %18 = call noundef ptr @_ZNK19OpenColorIO_v2_5dev6Config7getImplEv(ptr noundef nonnull align 8 dereferenceable(8) %6)
  %19 = getelementptr inbounds nuw %"class.OpenColorIO_v2_5dev::Config::Impl", ptr %18, i32 0, i32 27
  %20 = load i32, ptr %5, align 4, !tbaa !165
  %21 = sext i32 %20 to i64
  %22 = call noundef nonnull align 8 dereferenceable(32) ptr @_ZNSt6vectorINSt7__cxx1112basic_stringIcSt11char_traitsIcESaIcEEESaIS5_EEixEm(ptr noundef nonnull align 8 dereferenceable(24) %19, i64 noundef %21) #3
  %23 = call noundef ptr @_ZNKSt7__cxx1112basic_stringIcSt11char_traitsIcESaIcEE5c_strEv(ptr noundef nonnull align 8 dereferenceable(32) %22) #3
  store ptr %23, ptr %3, align 8
  br label %25

24:                                               ; preds = %10, %2
  store ptr @.str.25, ptr %3, align 8
  br label %25

25:                                               ; preds = %24, %17
  %26 = load ptr, ptr %3, align 8
  ret ptr %26
}