; Function Attrs: mustprogress uwtable
define noundef ptr @_ZNK19OpenColorIO_v2_5dev6Config10getDisplayEi(ptr noundef nonnull readonly align 8 captures(none) dereferenceable(8) %0, i32 noundef %1) local_unnamed_addr #4 align 2 {
  %3 = load ptr, ptr %0, align 8, !tbaa !34
  %4 = getelementptr inbounds nuw i8, ptr %3, i64 712
  %5 = load ptr, ptr %4, align 8, !tbaa !352
  %6 = getelementptr inbounds nuw i8, ptr %3, i64 720
  %7 = load ptr, ptr %6, align 8, !tbaa !352
  %8 = icmp eq ptr %5, %7
  br i1 %8, label %9, label %_ZNK19OpenColorIO_v2_5dev6Config4Impl18updateDisplayCacheEv.exit

9:                                                ; preds = %2
  %10 = getelementptr inbounds nuw i8, ptr %3, i64 376
  %11 = getelementptr inbounds nuw i8, ptr %3, i64 400
  %12 = getelementptr inbounds nuw i8, ptr %3, i64 424
  tail call void @_ZN19OpenColorIO_v2_5dev15ComputeDisplaysERSt6vectorINSt7__cxx1112basic_stringIcSt11char_traitsIcESaIcEEESaIS6_EERKS0_ISt4pairIS6_NS_7DisplayEESaISC_EERKS8_SI_(ptr noundef nonnull align 8 dereferenceable(24) %4, ptr noundef nonnull align 8 dereferenceable(24) %10, ptr noundef nonnull align 8 dereferenceable(24) %11, ptr noundef nonnull align 8 dereferenceable(24) %12)
  br label %_ZNK19OpenColorIO_v2_5dev6Config4Impl18updateDisplayCacheEv.exit

_ZNK19OpenColorIO_v2_5dev6Config4Impl18updateDisplayCacheEv.exit: ; preds = %2, %9
  %13 = icmp sgt i32 %1, -1
  br i1 %13, label %14, label %30

14:                                               ; preds = %_ZNK19OpenColorIO_v2_5dev6Config4Impl18updateDisplayCacheEv.exit
  %15 = load ptr, ptr %0, align 8, !tbaa !34
  %16 = getelementptr inbounds nuw i8, ptr %15, i64 712
  %17 = getelementptr inbounds nuw i8, ptr %15, i64 720
  %18 = load ptr, ptr %17, align 8, !tbaa !206
  %19 = load ptr, ptr %16, align 8, !tbaa !205
  %20 = ptrtoint ptr %18 to i64
  %21 = ptrtoint ptr %19 to i64
  %22 = sub i64 %20, %21
  %23 = lshr exact i64 %22, 5
  %24 = trunc i64 %23 to i32
  %25 = icmp slt i32 %1, %24
  br i1 %25, label %26, label %30

26:                                               ; preds = %14
  %27 = zext nneg i32 %1 to i64
  %28 = getelementptr inbounds nuw %"class.std::__cxx11::basic_string", ptr %19, i64 %27
  %29 = load ptr, ptr %28, align 8, !tbaa !29
  br label %30

30:                                               ; preds = %_ZNK19OpenColorIO_v2_5dev6Config4Impl18updateDisplayCacheEv.exit, %14, %26
  %.0 = phi ptr [ %29, %26 ], [ @.str.25, %14 ], [ @.str.25, %_ZNK19OpenColorIO_v2_5dev6Config4Impl18updateDisplayCacheEv.exit ]
  ret ptr %.0
}